target datalayout = "e-m:e-p270:32:32-p271:32:32-p272:64:64-i64:64-i128:128-f80:128-n8:16:32:64-S128"
target triple = "x86_64-pc-linux-gnu"

; Function Attrs: mustprogress nounwind uwtable
define dso_local noundef i32 @_ZN4llvm16AArch64InstrInfo11getMemScaleEj(i32 noundef %0) #0 align 2 {
  %2 = alloca i32, align 4
  %3 = alloca i32, align 4
  store i32 %0, ptr %3, align 4
  %4 = load i32, ptr %3, align 4
  switch i32 %4, label %5 [
    i32 4380, label %6
    i32 4549, label %6
    i32 4412, label %6
    i32 4555, label %6
    i32 6756, label %6
    i32 6805, label %6
    i32 4396, label %7
    i32 4552, label %7
    i32 4422, label %7
    i32 4557, label %7
    i32 6771, label %7
    i32 6808, label %7
    i32 4439, label %8
    i32 4560, label %8
    i32 4436, label %8
    i32 4433, label %8
    i32 4559, label %8
    i32 4430, label %8
    i32 4442, label %8
    i32 4445, label %8
    i32 4561, label %8
    i32 6786, label %8
    i32 6811, label %8
    i32 6783, label %8
    i32 6791, label %8
    i32 6812, label %8
    i32 6788, label %8
    i32 4363, label %8
    i32 4360, label %8
    i32 4366, label %8
    i32 6743, label %8
    i32 6746, label %8
    i32 4391, label %9
    i32 4551, label %9
    i32 4388, label %9
    i32 4451, label %9
    i32 4562, label %9
    i32 4448, label %9
    i32 6766, label %9
    i32 6807, label %9
    i32 6763, label %9
    i32 6796, label %9
    i32 6813, label %9
    i32 6793, label %9
    i32 4354, label %9
    i32 4369, label %9
    i32 6737, label %9
    i32 6749, label %9
    i32 4407, label %10
    i32 4554, label %10
    i32 6781, label %10
    i32 6810, label %10
    i32 6778, label %10
    i32 4357, label %10
    i32 4404, label %10
    i32 6740, label %10
    i32 6654, label %10
    i32 6826, label %10
    i32 6552, label %10
    i32 6822, label %10
    i32 6649, label %10
  ]

5:                                                ; preds = %1
  unreachable

6:                                                ; preds = %1, %1, %1, %1, %1, %1
  store i32 1, ptr %2, align 4
  br label %11

7:                                                ; preds = %1, %1, %1, %1, %1, %1
  store i32 2, ptr %2, align 4
  br label %11

8:                                                ; preds = %1, %1, %1, %1, %1, %1, %1, %1, %1, %1, %1, %1, %1, %1, %1, %1, %1, %1, %1, %1
  store i32 4, ptr %2, align 4
  br label %11

9:                                                ; preds = %1, %1, %1, %1, %1, %1, %1, %1, %1, %1, %1, %1, %1, %1, %1, %1
  store i32 8, ptr %2, align 4
  br label %11

10:                                               ; preds = %1, %1, %1, %1, %1, %1, %1, %1, %1, %1, %1, %1, %1
  store i32 16, ptr %2, align 4
  br label %11

11:                                               ; preds = %10, %9, %8, %7, %6
  %12 = load i32, ptr %2, align 4
  ret i32 %12
}