; Function Attrs: mustprogress nofree norecurse nosync nounwind willreturn memory(none) uwtable
define dso_local noundef range(i32 1, 17) i32 @_ZN4llvm16AArch64InstrInfo11getMemScaleEj(i32 noundef %0) local_unnamed_addr #7 align 2 {
  switch i32 %0, label %2 [
    i32 4380, label %7
    i32 4549, label %7
    i32 4412, label %7
    i32 4555, label %7
    i32 6756, label %7
    i32 6805, label %7
    i32 4396, label %3
    i32 4552, label %3
    i32 4422, label %3
    i32 4557, label %3
    i32 6771, label %3
    i32 6808, label %3
    i32 4439, label %4
    i32 4560, label %4
    i32 4436, label %4
    i32 4433, label %4
    i32 4559, label %4
    i32 4430, label %4
    i32 4442, label %4
    i32 4445, label %4
    i32 4561, label %4
    i32 6786, label %4
    i32 6811, label %4
    i32 6783, label %4
    i32 6791, label %4
    i32 6812, label %4
    i32 6788, label %4
    i32 4363, label %4
    i32 4360, label %4
    i32 4366, label %4
    i32 6743, label %4
    i32 6746, label %4
    i32 4391, label %5
    i32 4551, label %5
    i32 4388, label %5
    i32 4451, label %5
    i32 4562, label %5
    i32 4448, label %5
    i32 6766, label %5
    i32 6807, label %5
    i32 6763, label %5
    i32 6796, label %5
    i32 6813, label %5
    i32 6793, label %5
    i32 4354, label %5
    i32 4369, label %5
    i32 6737, label %5
    i32 6749, label %5
    i32 4407, label %6
    i32 4554, label %6
    i32 6781, label %6
    i32 6810, label %6
    i32 6778, label %6
    i32 4357, label %6
    i32 4404, label %6
    i32 6740, label %6
    i32 6654, label %6
    i32 6826, label %6
    i32 6552, label %6
    i32 6822, label %6
    i32 6649, label %6
  ]

2:                                                ; preds = %1
  unreachable

3:                                                ; preds = %1, %1, %1, %1, %1, %1
  br label %7

4:                                                ; preds = %1, %1, %1, %1, %1, %1, %1, %1, %1, %1, %1, %1, %1, %1, %1, %1, %1, %1, %1, %1
  br label %7

5:                                                ; preds = %1, %1, %1, %1, %1, %1, %1, %1, %1, %1, %1, %1, %1, %1, %1, %1
  br label %7

6:                                                ; preds = %1, %1, %1, %1, %1, %1, %1, %1, %1, %1, %1, %1, %1
  br label %7

7:                                                ; preds = %1, %1, %1, %1, %1, %1, %6, %5, %4, %3
  %.0 = phi i32 [ 16, %6 ], [ 8, %5 ], [ 4, %4 ], [ 2, %3 ], [ 1, %1 ], [ 1, %1 ], [ 1, %1 ], [ 1, %1 ], [ 1, %1 ], [ 1, %1 ]
  ret i32 %.0
}